	.file	"staticVarDr.c"
	.text
	.section	.rodata
.LC0:
	.string	"The address is different."
.LC1:
	.string	"The address is same."
	.text
	.globl	main
	.type	main, @function
main:
.LFB0:
	.cfi_startproc
	pushq	%rbp
	.cfi_def_cfa_offset 16
	.cfi_offset 6, -16
	movq	%rsp, %rbp
	.cfi_def_cfa_register 6
	pushq	%rbx
	subq	$8, %rsp
	.cfi_offset 3, -24
	call	f
	movq	%rax, %rbx
	call	g
	cmpq	%rax, %rbx
	je	.L2
	leaq	.LC0(%rip), %rdi
	call	puts@PLT
	jmp	.L3
.L2:
	leaq	.LC1(%rip), %rdi
	call	puts@PLT
.L3:
	movl	$0, %eax
	addq	$8, %rsp
	popq	%rbx
	popq	%rbp
	.cfi_def_cfa 7, 8
	ret
	.cfi_endproc
.LFE0:
	.size	main, .-main
	.globl	f
	.type	f, @function
f:
.LFB1:
	.cfi_startproc
	pushq	%rbp
	.cfi_def_cfa_offset 16
	.cfi_offset 6, -16
	movq	%rsp, %rbp
	.cfi_def_cfa_register 6
	leaq	a.2257(%rip), %rax
	popq	%rbp
	.cfi_def_cfa 7, 8
	ret
	.cfi_endproc
.LFE1:
	.size	f, .-f
	.globl	g
	.type	g, @function
g:
.LFB2:
	.cfi_startproc
	pushq	%rbp
	.cfi_def_cfa_offset 16
	.cfi_offset 6, -16
	movq	%rsp, %rbp
	.cfi_def_cfa_register 6
	leaq	a.2261(%rip), %rax
	popq	%rbp
	.cfi_def_cfa 7, 8
	ret
	.cfi_endproc
.LFE2:
	.size	g, .-g
	.local	a.2257
	.comm	a.2257,4,4
	.local	a.2261
	.comm	a.2261,4,4
	.ident	"GCC: (Ubuntu 7.3.0-27ubuntu1~18.04) 7.3.0"
	.section	.note.GNU-stack,"",@progbits
